target datalayout = "e-m:e-p270:32:32-p271:32:32-p272:64:64-i64:64-i128:128-f80:128-n8:16:32:64-S128"
target triple = "x86_64-pc-linux-gnu"

%struct.SDL_FColor = type { float, float, float, float }
%struct.SDL_RenderCommand = type { i32, %union.anon, ptr }
%union.anon = type { %struct.anon.5 }
%struct.anon.5 = type { i64, i64, float, %struct.SDL_FColor, i32, ptr, i32, i32, i32, ptr }

; Function Attrs: nounwind uwtable
define internal zeroext i1 @GPU_QueueGeometry(ptr noundef %0, ptr noundef %1, ptr noundef %2, ptr noundef %3, i32 noundef %4, ptr noundef %5, i32 noundef %6, ptr noundef %7, i32 noundef %8, i32 noundef %9, ptr noundef %10, i32 noundef %11, i32 noundef %12, float noundef %13, float noundef %14) #0 {
  %16 = alloca i1, align 1
  %17 = alloca ptr, align 8
  %18 = alloca ptr, align 8
  %19 = alloca ptr, align 8
  %20 = alloca ptr, align 8
  %21 = alloca i32, align 4
  %22 = alloca ptr, align 8
  %23 = alloca i32, align 4
  %24 = alloca ptr, align 8
  %25 = alloca i32, align 4
  %26 = alloca i32, align 4
  %27 = alloca ptr, align 8
  %28 = alloca i32, align 4
  %29 = alloca i32, align 4
  %30 = alloca float, align 4
  %31 = alloca float, align 4
  %32 = alloca i32, align 4
  %33 = alloca i32, align 4
  %34 = alloca ptr, align 8
  %35 = alloca i64, align 8
  %36 = alloca float, align 4
  %37 = alloca i8, align 1
  %38 = alloca i32, align 4
  %39 = alloca i32, align 4
  %40 = alloca ptr, align 8
  %41 = alloca %struct.SDL_FColor, align 4
  %42 = alloca ptr, align 8
  store ptr %0, ptr %17, align 8
  store ptr %1, ptr %18, align 8
  store ptr %2, ptr %19, align 8
  store ptr %3, ptr %20, align 8
  store i32 %4, ptr %21, align 4
  store ptr %5, ptr %22, align 8
  store i32 %6, ptr %23, align 4
  store ptr %7, ptr %24, align 8
  store i32 %8, ptr %25, align 4
  store i32 %9, ptr %26, align 4
  store ptr %10, ptr %27, align 8
  store i32 %11, ptr %28, align 4
  store i32 %12, ptr %29, align 4
  store float %13, ptr %30, align 4
  store float %14, ptr %31, align 4
  call void @llvm.lifetime.start.p0(i64 4, ptr %32) #10
  call void @llvm.lifetime.start.p0(i64 4, ptr %33) #10
  %43 = load ptr, ptr %27, align 8
  %44 = icmp ne ptr %43, null
  br i1 %44, label %45, label %47

45:                                               ; preds = %15
  %46 = load i32, ptr %28, align 4
  br label %49

47:                                               ; preds = %15
  %48 = load i32, ptr %26, align 4
  br label %49

49:                                               ; preds = %47, %45
  %50 = phi i32 [ %46, %45 ], [ %48, %47 ]
  store i32 %50, ptr %33, align 4
  call void @llvm.lifetime.start.p0(i64 8, ptr %34) #10
  call void @llvm.lifetime.start.p0(i64 8, ptr %35) #10
  %51 = load ptr, ptr %19, align 8
  %52 = icmp ne ptr %51, null
  %53 = select i1 %52, i32 2, i32 0
  %54 = sext i32 %53 to i64
  %55 = mul i64 %54, 4
  %56 = add i64 24, %55
  store i64 %56, ptr %35, align 8
  call void @llvm.lifetime.start.p0(i64 4, ptr %36) #10
  %57 = load ptr, ptr %18, align 8
  %58 = getelementptr inbounds nuw %struct.SDL_RenderCommand, ptr %57, i32 0, i32 1
  %59 = getelementptr inbounds nuw %struct.anon.5, ptr %58, i32 0, i32 2
  %60 = load float, ptr %59, align 8
  store float %60, ptr %36, align 4
  call void @llvm.lifetime.start.p0(i64 1, ptr %37) #10
  %61 = load ptr, ptr %17, align 8
  %62 = call zeroext i1 @SDL_RenderingLinearSpace(ptr noundef %61)
  %63 = zext i1 %62 to i8
  store i8 %63, ptr %37, align 1
  %64 = load ptr, ptr %17, align 8
  %65 = load i32, ptr %33, align 4
  %66 = sext i32 %65 to i64
  %67 = load i64, ptr %35, align 8
  %68 = mul i64 %66, %67
  %69 = load ptr, ptr %18, align 8
  %70 = getelementptr inbounds nuw %struct.SDL_RenderCommand, ptr %69, i32 0, i32 1
  %71 = getelementptr inbounds nuw %struct.anon.5, ptr %70, i32 0, i32 0
  %72 = call ptr @SDL_AllocateRenderVertices(ptr noundef %64, i64 noundef %68, i64 noundef 0, ptr noundef %71)
  store ptr %72, ptr %34, align 8
  %73 = load ptr, ptr %34, align 8
  %74 = icmp ne ptr %73, null
  br i1 %74, label %76, label %75

75:                                               ; preds = %49
  store i1 false, ptr %16, align 1
  store i32 1, ptr %38, align 4
  br label %203

76:                                               ; preds = %49
  %77 = load i32, ptr %33, align 4
  %78 = sext i32 %77 to i64
  %79 = load ptr, ptr %18, align 8
  %80 = getelementptr inbounds nuw %struct.SDL_RenderCommand, ptr %79, i32 0, i32 1
  %81 = getelementptr inbounds nuw %struct.anon.5, ptr %80, i32 0, i32 1
  store i64 %78, ptr %81, align 8
  %82 = load ptr, ptr %27, align 8
  %83 = icmp ne ptr %82, null
  br i1 %83, label %84, label %86

84:                                               ; preds = %76
  %85 = load i32, ptr %29, align 4
  br label %87

86:                                               ; preds = %76
  br label %87

87:                                               ; preds = %86, %84
  %88 = phi i32 [ %85, %84 ], [ 0, %86 ]
  store i32 %88, ptr %29, align 4
  store i32 0, ptr %32, align 4
  br label %89

89:                                               ; preds = %199, %87
  %90 = load i32, ptr %32, align 4
  %91 = load i32, ptr %33, align 4
  %92 = icmp slt i32 %90, %91
  br i1 %92, label %93, label %202

93:                                               ; preds = %89
  call void @llvm.lifetime.start.p0(i64 4, ptr %39) #10
  call void @llvm.lifetime.start.p0(i64 8, ptr %40) #10
  call void @llvm.lifetime.start.p0(i64 16, ptr %41) #10
  %94 = load i32, ptr %29, align 4
  %95 = icmp eq i32 %94, 4
  br i1 %95, label %96, label %102

96:                                               ; preds = %93
  %97 = load ptr, ptr %27, align 8
  %98 = load i32, ptr %32, align 4
  %99 = sext i32 %98 to i64
  %100 = getelementptr inbounds i32, ptr %97, i64 %99
  %101 = load i32, ptr %100, align 4
  store i32 %101, ptr %39, align 4
  br label %126

102:                                              ; preds = %93
  %103 = load i32, ptr %29, align 4
  %104 = icmp eq i32 %103, 2
  br i1 %104, label %105, label %112

105:                                              ; preds = %102
  %106 = load ptr, ptr %27, align 8
  %107 = load i32, ptr %32, align 4
  %108 = sext i32 %107 to i64
  %109 = getelementptr inbounds i16, ptr %106, i64 %108
  %110 = load i16, ptr %109, align 2
  %111 = zext i16 %110 to i32
  store i32 %111, ptr %39, align 4
  br label %125

112:                                              ; preds = %102
  %113 = load i32, ptr %29, align 4
  %114 = icmp eq i32 %113, 1
  br i1 %114, label %115, label %122

115:                                              ; preds = %112
  %116 = load ptr, ptr %27, align 8
  %117 = load i32, ptr %32, align 4
  %118 = sext i32 %117 to i64
  %119 = getelementptr inbounds i8, ptr %116, i64 %118
  %120 = load i8, ptr %119, align 1
  %121 = zext i8 %120 to i32
  store i32 %121, ptr %39, align 4
  br label %124

122:                                              ; preds = %112
  %123 = load i32, ptr %32, align 4
  store i32 %123, ptr %39, align 4
  br label %124

124:                                              ; preds = %122, %115
  br label %125

125:                                              ; preds = %124, %105
  br label %126

126:                                              ; preds = %125, %96
  %127 = load ptr, ptr %20, align 8
  %128 = load i32, ptr %39, align 4
  %129 = load i32, ptr %21, align 4
  %130 = mul nsw i32 %128, %129
  %131 = sext i32 %130 to i64
  %132 = getelementptr inbounds i8, ptr %127, i64 %131
  store ptr %132, ptr %40, align 8
  %133 = load ptr, ptr %40, align 8
  %134 = getelementptr inbounds float, ptr %133, i64 0
  %135 = load float, ptr %134, align 4
  %136 = load float, ptr %30, align 4
  %137 = fmul float %135, %136
  %138 = load ptr, ptr %34, align 8
  %139 = getelementptr inbounds nuw float, ptr %138, i32 1
  store ptr %139, ptr %34, align 8
  store float %137, ptr %138, align 4
  %140 = load ptr, ptr %40, align 8
  %141 = getelementptr inbounds float, ptr %140, i64 1
  %142 = load float, ptr %141, align 4
  %143 = load float, ptr %31, align 4
  %144 = fmul float %142, %143
  %145 = load ptr, ptr %34, align 8
  %146 = getelementptr inbounds nuw float, ptr %145, i32 1
  store ptr %146, ptr %34, align 8
  store float %144, ptr %145, align 4
  %147 = load ptr, ptr %22, align 8
  %148 = load i32, ptr %39, align 4
  %149 = load i32, ptr %23, align 4
  %150 = mul nsw i32 %148, %149
  %151 = sext i32 %150 to i64
  %152 = getelementptr inbounds i8, ptr %147, i64 %151
  call void @llvm.memcpy.p0.p0.i64(ptr align 4 %41, ptr align 4 %152, i64 16, i1 false)
  %153 = load i8, ptr %37, align 1, !range !3, !noundef !4
  %154 = trunc i8 %153 to i1
  br i1 %154, label %155, label %156

155:                                              ; preds = %126
  call void @SDL_ConvertToLinear(ptr noundef %41)
  br label %156

156:                                              ; preds = %155, %126
  %157 = getelementptr inbounds nuw %struct.SDL_FColor, ptr %41, i32 0, i32 0
  %158 = load float, ptr %157, align 4
  %159 = load float, ptr %36, align 4
  %160 = fmul float %158, %159
  %161 = load ptr, ptr %34, align 8
  %162 = getelementptr inbounds nuw float, ptr %161, i32 1
  store ptr %162, ptr %34, align 8
  store float %160, ptr %161, align 4
  %163 = getelementptr inbounds nuw %struct.SDL_FColor, ptr %41, i32 0, i32 1
  %164 = load float, ptr %163, align 4
  %165 = load float, ptr %36, align 4
  %166 = fmul float %164, %165
  %167 = load ptr, ptr %34, align 8
  %168 = getelementptr inbounds nuw float, ptr %167, i32 1
  store ptr %168, ptr %34, align 8
  store float %166, ptr %167, align 4
  %169 = getelementptr inbounds nuw %struct.SDL_FColor, ptr %41, i32 0, i32 2
  %170 = load float, ptr %169, align 4
  %171 = load float, ptr %36, align 4
  %172 = fmul float %170, %171
  %173 = load ptr, ptr %34, align 8
  %174 = getelementptr inbounds nuw float, ptr %173, i32 1
  store ptr %174, ptr %34, align 8
  store float %172, ptr %173, align 4
  %175 = getelementptr inbounds nuw %struct.SDL_FColor, ptr %41, i32 0, i32 3
  %176 = load float, ptr %175, align 4
  %177 = load ptr, ptr %34, align 8
  %178 = getelementptr inbounds nuw float, ptr %177, i32 1
  store ptr %178, ptr %34, align 8
  store float %176, ptr %177, align 4
  %179 = load ptr, ptr %19, align 8
  %180 = icmp ne ptr %179, null
  br i1 %180, label %181, label %198

181:                                              ; preds = %156
  call void @llvm.lifetime.start.p0(i64 8, ptr %42) #10
  %182 = load ptr, ptr %24, align 8
  %183 = load i32, ptr %39, align 4
  %184 = load i32, ptr %25, align 4
  %185 = mul nsw i32 %183, %184
  %186 = sext i32 %185 to i64
  %187 = getelementptr inbounds i8, ptr %182, i64 %186
  store ptr %187, ptr %42, align 8
  %188 = load ptr, ptr %42, align 8
  %189 = getelementptr inbounds float, ptr %188, i64 0
  %190 = load float, ptr %189, align 4
  %191 = load ptr, ptr %34, align 8
  %192 = getelementptr inbounds nuw float, ptr %191, i32 1
  store ptr %192, ptr %34, align 8
  store float %190, ptr %191, align 4
  %193 = load ptr, ptr %42, align 8
  %194 = getelementptr inbounds float, ptr %193, i64 1
  %195 = load float, ptr %194, align 4
  %196 = load ptr, ptr %34, align 8
  %197 = getelementptr inbounds nuw float, ptr %196, i32 1
  store ptr %197, ptr %34, align 8
  store float %195, ptr %196, align 4
  call void @llvm.lifetime.end.p0(i64 8, ptr %42) #10
  br label %198

198:                                              ; preds = %181, %156
  call void @llvm.lifetime.end.p0(i64 16, ptr %41) #10
  call void @llvm.lifetime.end.p0(i64 8, ptr %40) #10
  call void @llvm.lifetime.end.p0(i64 4, ptr %39) #10
  br label %199

199:                                              ; preds = %198
  %200 = load i32, ptr %32, align 4
  %201 = add nsw i32 %200, 1
  store i32 %201, ptr %32, align 4
  br label %89, !llvm.loop !8

202:                                              ; preds = %89
  store i1 true, ptr %16, align 1
  store i32 1, ptr %38, align 4
  br label %203

203:                                              ; preds = %202, %75
  call void @llvm.lifetime.end.p0(i64 1, ptr %37) #10
  call void @llvm.lifetime.end.p0(i64 4, ptr %36) #10
  call void @llvm.lifetime.end.p0(i64 8, ptr %35) #10
  call void @llvm.lifetime.end.p0(i64 8, ptr %34) #10
  call void @llvm.lifetime.end.p0(i64 4, ptr %33) #10
  call void @llvm.lifetime.end.p0(i64 4, ptr %32) #10
  %204 = load i1, ptr %16, align 1
  ret i1 %204
}