; Function Attrs: nounwind uwtable
define internal noundef zeroext i1 @GPU_QueueGeometry(ptr noundef %0, ptr noundef %1, ptr noundef readnone captures(address_is_null) %2, ptr noundef readonly captures(none) %3, i32 noundef %4, ptr noundef readonly captures(none) %5, i32 noundef %6, ptr noundef readonly captures(none) %7, i32 noundef %8, i32 noundef %9, ptr noundef readonly captures(address_is_null) %10, i32 noundef %11, i32 noundef %12, float noundef %13, float noundef %14) #0 {
  %16 = alloca %struct.SDL_FColor, align 4
  %.not = icmp eq ptr %10, null
  %17 = select i1 %.not, i32 %9, i32 %11
  %.not61 = icmp eq ptr %2, null
  %18 = select i1 %.not61, i64 24, i64 32
  %19 = getelementptr inbounds nuw i8, ptr %1, i64 8
  %20 = getelementptr inbounds nuw i8, ptr %1, i64 24
  %21 = load float, ptr %20, align 8
  %22 = tail call zeroext i1 @SDL_RenderingLinearSpace(ptr noundef %0) #11
  %23 = sext i32 %17 to i64
  %24 = mul nsw i64 %18, %23
  %25 = tail call ptr @SDL_AllocateRenderVertices(ptr noundef %0, i64 noundef %24, i64 noundef 0, ptr noundef nonnull %19) #11
  %.not62 = icmp ne ptr %25, null
  br i1 %.not62, label %26, label %.loopexit

26:                                               ; preds = %15
  %27 = getelementptr inbounds nuw i8, ptr %1, i64 16
  store i64 %23, ptr %27, align 8
  %28 = select i1 %.not, i32 0, i32 %12
  %29 = icmp sgt i32 %17, 0
  br i1 %29, label %.lr.ph, label %.loopexit

.lr.ph:                                           ; preds = %26
  %30 = getelementptr inbounds nuw i8, ptr %16, i64 4
  %31 = getelementptr inbounds nuw i8, ptr %16, i64 8
  %32 = getelementptr inbounds nuw i8, ptr %16, i64 12
  %wide.trip.count85 = zext nneg i32 %17 to i64
  br i1 %.not61, label %.lr.ph.split.us, label %.lr.ph.split

.lr.ph.split.us:                                  ; preds = %.lr.ph
  br i1 %22, label %.lr.ph.split.us.split.us, label %.lr.ph.split.us.split

.lr.ph.split.us.split.us:                         ; preds = %.lr.ph.split.us, %45
  %indvars.iv82 = phi i64 [ %indvars.iv.next83, %45 ], [ 0, %.lr.ph.split.us ]
  %.05863.us.us = phi ptr [ %69, %45 ], [ %25, %.lr.ph.split.us ]
  call void @llvm.lifetime.start.p0(i64 16, ptr nonnull %16) #11
  %33 = trunc nuw nsw i64 %indvars.iv82 to i32
  switch i32 %28, label %45 [
    i32 4, label %42
    i32 2, label %38
    i32 1, label %34
  ]

34:                                               ; preds = %.lr.ph.split.us.split.us
  %35 = getelementptr inbounds nuw i8, ptr %10, i64 %indvars.iv82
  %36 = load i8, ptr %35, align 1
  %37 = zext i8 %36 to i32
  br label %45

38:                                               ; preds = %.lr.ph.split.us.split.us
  %39 = getelementptr inbounds nuw i16, ptr %10, i64 %indvars.iv82
  %40 = load i16, ptr %39, align 2
  %41 = zext i16 %40 to i32
  br label %45

42:                                               ; preds = %.lr.ph.split.us.split.us
  %43 = getelementptr inbounds nuw i32, ptr %10, i64 %indvars.iv82
  %44 = load i32, ptr %43, align 4
  br label %45

45:                                               ; preds = %42, %38, %34, %.lr.ph.split.us.split.us
  %.056.us.us = phi i32 [ %44, %42 ], [ %41, %38 ], [ %37, %34 ], [ %33, %.lr.ph.split.us.split.us ]
  %46 = mul nsw i32 %.056.us.us, %4
  %47 = sext i32 %46 to i64
  %48 = getelementptr inbounds i8, ptr %3, i64 %47
  %49 = load float, ptr %48, align 4
  %50 = fmul float %13, %49
  %51 = getelementptr inbounds nuw i8, ptr %.05863.us.us, i64 4
  store float %50, ptr %.05863.us.us, align 4
  %52 = getelementptr inbounds nuw i8, ptr %48, i64 4
  %53 = load float, ptr %52, align 4
  %54 = fmul float %14, %53
  %55 = getelementptr inbounds nuw i8, ptr %.05863.us.us, i64 8
  store float %54, ptr %51, align 4
  %56 = mul nsw i32 %.056.us.us, %6
  %57 = sext i32 %56 to i64
  %58 = getelementptr inbounds i8, ptr %5, i64 %57
  call void @llvm.memcpy.p0.p0.i64(ptr noundef nonnull align 4 dereferenceable(16) %16, ptr noundef nonnull align 4 dereferenceable(16) %58, i64 16, i1 false)
  call void @SDL_ConvertToLinear(ptr noundef nonnull %16) #11
  %59 = load float, ptr %16, align 4
  %60 = fmul float %21, %59
  %61 = getelementptr inbounds nuw i8, ptr %.05863.us.us, i64 12
  store float %60, ptr %55, align 4
  %62 = load float, ptr %30, align 4
  %63 = fmul float %21, %62
  %64 = getelementptr inbounds nuw i8, ptr %.05863.us.us, i64 16
  store float %63, ptr %61, align 4
  %65 = load float, ptr %31, align 4
  %66 = fmul float %21, %65
  %67 = getelementptr inbounds nuw i8, ptr %.05863.us.us, i64 20
  store float %66, ptr %64, align 4
  %68 = load float, ptr %32, align 4
  %69 = getelementptr inbounds nuw i8, ptr %.05863.us.us, i64 24
  store float %68, ptr %67, align 4
  call void @llvm.lifetime.end.p0(i64 16, ptr nonnull %16) #11
  %indvars.iv.next83 = add nuw nsw i64 %indvars.iv82, 1
  %exitcond86.not = icmp eq i64 %indvars.iv.next83, %wide.trip.count85
  br i1 %exitcond86.not, label %.loopexit, label %.lr.ph.split.us.split.us, !llvm.loop !6

.lr.ph.split.us.split:                            ; preds = %.lr.ph.split.us, %82
  %indvars.iv77 = phi i64 [ %indvars.iv.next78, %82 ], [ 0, %.lr.ph.split.us ]
  %.05863.us = phi ptr [ %106, %82 ], [ %25, %.lr.ph.split.us ]
  call void @llvm.lifetime.start.p0(i64 16, ptr nonnull %16) #11
  %70 = trunc nuw nsw i64 %indvars.iv77 to i32
  switch i32 %28, label %82 [
    i32 4, label %79
    i32 2, label %75
    i32 1, label %71
  ]

71:                                               ; preds = %.lr.ph.split.us.split
  %72 = getelementptr inbounds nuw i8, ptr %10, i64 %indvars.iv77
  %73 = load i8, ptr %72, align 1
  %74 = zext i8 %73 to i32
  br label %82

75:                                               ; preds = %.lr.ph.split.us.split
  %76 = getelementptr inbounds nuw i16, ptr %10, i64 %indvars.iv77
  %77 = load i16, ptr %76, align 2
  %78 = zext i16 %77 to i32
  br label %82

79:                                               ; preds = %.lr.ph.split.us.split
  %80 = getelementptr inbounds nuw i32, ptr %10, i64 %indvars.iv77
  %81 = load i32, ptr %80, align 4
  br label %82

82:                                               ; preds = %79, %75, %71, %.lr.ph.split.us.split
  %.056.us = phi i32 [ %81, %79 ], [ %78, %75 ], [ %74, %71 ], [ %70, %.lr.ph.split.us.split ]
  %83 = mul nsw i32 %.056.us, %4
  %84 = sext i32 %83 to i64
  %85 = getelementptr inbounds i8, ptr %3, i64 %84
  %86 = load float, ptr %85, align 4
  %87 = fmul float %13, %86
  %88 = getelementptr inbounds nuw i8, ptr %.05863.us, i64 4
  store float %87, ptr %.05863.us, align 4
  %89 = getelementptr inbounds nuw i8, ptr %85, i64 4
  %90 = load float, ptr %89, align 4
  %91 = fmul float %14, %90
  %92 = getelementptr inbounds nuw i8, ptr %.05863.us, i64 8
  store float %91, ptr %88, align 4
  %93 = mul nsw i32 %.056.us, %6
  %94 = sext i32 %93 to i64
  %95 = getelementptr inbounds i8, ptr %5, i64 %94
  call void @llvm.memcpy.p0.p0.i64(ptr noundef nonnull align 4 dereferenceable(16) %16, ptr noundef nonnull align 4 dereferenceable(16) %95, i64 16, i1 false)
  %96 = load float, ptr %16, align 4
  %97 = fmul float %21, %96
  %98 = getelementptr inbounds nuw i8, ptr %.05863.us, i64 12
  store float %97, ptr %92, align 4
  %99 = load float, ptr %30, align 4
  %100 = fmul float %21, %99
  %101 = getelementptr inbounds nuw i8, ptr %.05863.us, i64 16
  store float %100, ptr %98, align 4
  %102 = load float, ptr %31, align 4
  %103 = fmul float %21, %102
  %104 = getelementptr inbounds nuw i8, ptr %.05863.us, i64 20
  store float %103, ptr %101, align 4
  %105 = load float, ptr %32, align 4
  %106 = getelementptr inbounds nuw i8, ptr %.05863.us, i64 24
  store float %105, ptr %104, align 4
  call void @llvm.lifetime.end.p0(i64 16, ptr nonnull %16) #11
  %indvars.iv.next78 = add nuw nsw i64 %indvars.iv77, 1
  %exitcond81.not = icmp eq i64 %indvars.iv.next78, %wide.trip.count85
  br i1 %exitcond81.not, label %.loopexit, label %.lr.ph.split.us.split, !llvm.loop !6

.lr.ph.split:                                     ; preds = %.lr.ph
  br i1 %22, label %.lr.ph.split.split.us, label %.lr.ph.split.split

.lr.ph.split.split.us:                            ; preds = %.lr.ph.split, %119
  %indvars.iv72 = phi i64 [ %indvars.iv.next73, %119 ], [ 0, %.lr.ph.split ]
  %.05863.us66 = phi ptr [ %151, %119 ], [ %25, %.lr.ph.split ]
  call void @llvm.lifetime.start.p0(i64 16, ptr nonnull %16) #11
  %107 = trunc nuw nsw i64 %indvars.iv72 to i32
  switch i32 %28, label %119 [
    i32 4, label %116
    i32 2, label %112
    i32 1, label %108
  ]

108:                                              ; preds = %.lr.ph.split.split.us
  %109 = getelementptr inbounds nuw i8, ptr %10, i64 %indvars.iv72
  %110 = load i8, ptr %109, align 1
  %111 = zext i8 %110 to i32
  br label %119

112:                                              ; preds = %.lr.ph.split.split.us
  %113 = getelementptr inbounds nuw i16, ptr %10, i64 %indvars.iv72
  %114 = load i16, ptr %113, align 2
  %115 = zext i16 %114 to i32
  br label %119

116:                                              ; preds = %.lr.ph.split.split.us
  %117 = getelementptr inbounds nuw i32, ptr %10, i64 %indvars.iv72
  %118 = load i32, ptr %117, align 4
  br label %119

119:                                              ; preds = %116, %112, %108, %.lr.ph.split.split.us
  %.056.us67 = phi i32 [ %118, %116 ], [ %115, %112 ], [ %111, %108 ], [ %107, %.lr.ph.split.split.us ]
  %120 = mul nsw i32 %.056.us67, %4
  %121 = sext i32 %120 to i64
  %122 = getelementptr inbounds i8, ptr %3, i64 %121
  %123 = load float, ptr %122, align 4
  %124 = fmul float %13, %123
  %125 = getelementptr inbounds nuw i8, ptr %.05863.us66, i64 4
  store float %124, ptr %.05863.us66, align 4
  %126 = getelementptr inbounds nuw i8, ptr %122, i64 4
  %127 = load float, ptr %126, align 4
  %128 = fmul float %14, %127
  %129 = getelementptr inbounds nuw i8, ptr %.05863.us66, i64 8
  store float %128, ptr %125, align 4
  %130 = mul nsw i32 %.056.us67, %6
  %131 = sext i32 %130 to i64
  %132 = getelementptr inbounds i8, ptr %5, i64 %131
  call void @llvm.memcpy.p0.p0.i64(ptr noundef nonnull align 4 dereferenceable(16) %16, ptr noundef nonnull align 4 dereferenceable(16) %132, i64 16, i1 false)
  call void @SDL_ConvertToLinear(ptr noundef nonnull %16) #11
  %133 = load float, ptr %16, align 4
  %134 = fmul float %21, %133
  %135 = getelementptr inbounds nuw i8, ptr %.05863.us66, i64 12
  store float %134, ptr %129, align 4
  %136 = load float, ptr %30, align 4
  %137 = fmul float %21, %136
  %138 = getelementptr inbounds nuw i8, ptr %.05863.us66, i64 16
  store float %137, ptr %135, align 4
  %139 = load float, ptr %31, align 4
  %140 = fmul float %21, %139
  %141 = getelementptr inbounds nuw i8, ptr %.05863.us66, i64 20
  store float %140, ptr %138, align 4
  %142 = load float, ptr %32, align 4
  %143 = getelementptr inbounds nuw i8, ptr %.05863.us66, i64 24
  store float %142, ptr %141, align 4
  %144 = mul nsw i32 %.056.us67, %8
  %145 = sext i32 %144 to i64
  %146 = getelementptr inbounds i8, ptr %7, i64 %145
  %147 = load float, ptr %146, align 4
  %148 = getelementptr inbounds nuw i8, ptr %.05863.us66, i64 28
  store float %147, ptr %143, align 4
  %149 = getelementptr inbounds nuw i8, ptr %146, i64 4
  %150 = load float, ptr %149, align 4
  %151 = getelementptr inbounds nuw i8, ptr %.05863.us66, i64 32
  store float %150, ptr %148, align 4
  call void @llvm.lifetime.end.p0(i64 16, ptr nonnull %16) #11
  %indvars.iv.next73 = add nuw nsw i64 %indvars.iv72, 1
  %exitcond76.not = icmp eq i64 %indvars.iv.next73, %wide.trip.count85
  br i1 %exitcond76.not, label %.loopexit, label %.lr.ph.split.split.us, !llvm.loop !6

.lr.ph.split.split:                               ; preds = %.lr.ph.split, %164
  %indvars.iv = phi i64 [ %indvars.iv.next, %164 ], [ 0, %.lr.ph.split ]
  %.05863 = phi ptr [ %196, %164 ], [ %25, %.lr.ph.split ]
  call void @llvm.lifetime.start.p0(i64 16, ptr nonnull %16) #11
  %152 = trunc nuw nsw i64 %indvars.iv to i32
  switch i32 %28, label %164 [
    i32 4, label %153
    i32 2, label %156
    i32 1, label %160
  ]

153:                                              ; preds = %.lr.ph.split.split
  %154 = getelementptr inbounds nuw i32, ptr %10, i64 %indvars.iv
  %155 = load i32, ptr %154, align 4
  br label %164

156:                                              ; preds = %.lr.ph.split.split
  %157 = getelementptr inbounds nuw i16, ptr %10, i64 %indvars.iv
  %158 = load i16, ptr %157, align 2
  %159 = zext i16 %158 to i32
  br label %164

160:                                              ; preds = %.lr.ph.split.split
  %161 = getelementptr inbounds nuw i8, ptr %10, i64 %indvars.iv
  %162 = load i8, ptr %161, align 1
  %163 = zext i8 %162 to i32
  br label %164

164:                                              ; preds = %.lr.ph.split.split, %156, %160, %153
  %.056 = phi i32 [ %155, %153 ], [ %159, %156 ], [ %163, %160 ], [ %152, %.lr.ph.split.split ]
  %165 = mul nsw i32 %.056, %4
  %166 = sext i32 %165 to i64
  %167 = getelementptr inbounds i8, ptr %3, i64 %166
  %168 = load float, ptr %167, align 4
  %169 = fmul float %13, %168
  %170 = getelementptr inbounds nuw i8, ptr %.05863, i64 4
  store float %169, ptr %.05863, align 4
  %171 = getelementptr inbounds nuw i8, ptr %167, i64 4
  %172 = load float, ptr %171, align 4
  %173 = fmul float %14, %172
  %174 = getelementptr inbounds nuw i8, ptr %.05863, i64 8
  store float %173, ptr %170, align 4
  %175 = mul nsw i32 %.056, %6
  %176 = sext i32 %175 to i64
  %177 = getelementptr inbounds i8, ptr %5, i64 %176
  call void @llvm.memcpy.p0.p0.i64(ptr noundef nonnull align 4 dereferenceable(16) %16, ptr noundef nonnull align 4 dereferenceable(16) %177, i64 16, i1 false)
  %178 = load float, ptr %16, align 4
  %179 = fmul float %21, %178
  %180 = getelementptr inbounds nuw i8, ptr %.05863, i64 12
  store float %179, ptr %174, align 4
  %181 = load float, ptr %30, align 4
  %182 = fmul float %21, %181
  %183 = getelementptr inbounds nuw i8, ptr %.05863, i64 16
  store float %182, ptr %180, align 4
  %184 = load float, ptr %31, align 4
  %185 = fmul float %21, %184
  %186 = getelementptr inbounds nuw i8, ptr %.05863, i64 20
  store float %185, ptr %183, align 4
  %187 = load float, ptr %32, align 4
  %188 = getelementptr inbounds nuw i8, ptr %.05863, i64 24
  store float %187, ptr %186, align 4
  %189 = mul nsw i32 %.056, %8
  %190 = sext i32 %189 to i64
  %191 = getelementptr inbounds i8, ptr %7, i64 %190
  %192 = load float, ptr %191, align 4
  %193 = getelementptr inbounds nuw i8, ptr %.05863, i64 28
  store float %192, ptr %188, align 4
  %194 = getelementptr inbounds nuw i8, ptr %191, i64 4
  %195 = load float, ptr %194, align 4
  %196 = getelementptr inbounds nuw i8, ptr %.05863, i64 32
  store float %195, ptr %193, align 4
  call void @llvm.lifetime.end.p0(i64 16, ptr nonnull %16) #11
  %indvars.iv.next = add nuw nsw i64 %indvars.iv, 1
  %exitcond.not = icmp eq i64 %indvars.iv.next, %wide.trip.count85
  br i1 %exitcond.not, label %.loopexit, label %.lr.ph.split.split, !llvm.loop !6

.loopexit:                                        ; preds = %164, %119, %82, %45, %26, %15
  ret i1 %.not62
}